target datalayout = "e-m:e-p270:32:32-p271:32:32-p272:64:64-i64:64-i128:128-f80:128-n8:16:32:64-S128"
target triple = "x86_64-pc-linux-gnu"

%struct.pathspec = type { i32, i8, i32, i32, ptr }
%struct.pathspec_item = type { ptr, ptr, i32, i32, i32, i32, i32, i32, ptr, ptr }
%struct.attr_match = type { ptr, i32 }

@.str.22 = private unnamed_addr constant [27 x i8] c"size_t overflow: %lu * %lu\00", align 1

; Function Attrs: inlinehint nounwind uwtable
define internal ptr @xstrdup_or_null(ptr noundef %0) #3 {
  %2 = alloca ptr, align 8
  store ptr %0, ptr %2, align 8, !tbaa !11
  %3 = load ptr, ptr %2, align 8, !tbaa !11
  %4 = icmp ne ptr %3, null
  br i1 %4, label %5, label %8

5:                                                ; preds = %1
  %6 = load ptr, ptr %2, align 8, !tbaa !11
  %7 = call ptr @xstrdup(ptr noundef %6)
  br label %9

8:                                                ; preds = %1
  br label %9

9:                                                ; preds = %8, %5
  %10 = phi ptr [ %7, %5 ], [ null, %8 ]
  ret ptr %10
}

; Function Attrs: inlinehint nounwind uwtable
define internal void @copy_array(ptr noundef %0, ptr noundef %1, i64 noundef %2, i64 noundef %3) #3 {
  %5 = alloca ptr, align 8
  %6 = alloca ptr, align 8
  %7 = alloca i64, align 8
  %8 = alloca i64, align 8
  store ptr %0, ptr %5, align 8, !tbaa !91
  store ptr %1, ptr %6, align 8, !tbaa !91
  store i64 %2, ptr %7, align 8, !tbaa !85
  store i64 %3, ptr %8, align 8, !tbaa !85
  %9 = load i64, ptr %7, align 8, !tbaa !85
  %10 = icmp ne i64 %9, 0
  br i1 %10, label %11, label %17

11:                                               ; preds = %4
  %12 = load ptr, ptr %5, align 8, !tbaa !91
  %13 = load ptr, ptr %6, align 8, !tbaa !91
  %14 = load i64, ptr %8, align 8, !tbaa !85
  %15 = load i64, ptr %7, align 8, !tbaa !85
  %16 = call i64 @st_mult(i64 noundef %14, i64 noundef %15)
  call void @llvm.memcpy.p0.p0.i64(ptr align 1 %12, ptr align 1 %13, i64 %16, i1 false)
  br label %17

17:                                               ; preds = %11, %4
  ret void
}

; Function Attrs: inlinehint nounwind uwtable
define internal i64 @st_mult(i64 noundef %0, i64 noundef %1) #3 {
  %3 = alloca i64, align 8
  %4 = alloca i64, align 8
  store i64 %0, ptr %3, align 8, !tbaa !85
  store i64 %1, ptr %4, align 8, !tbaa !85
  %5 = load i64, ptr %3, align 8, !tbaa !85
  %6 = icmp ne i64 %5, 0
  br i1 %6, label %7, label %15

7:                                                ; preds = %2
  %8 = load i64, ptr %4, align 8, !tbaa !85
  %9 = load i64, ptr %3, align 8, !tbaa !85
  %10 = udiv i64 -1, %9
  %11 = icmp ugt i64 %8, %10
  br i1 %11, label %12, label %15

12:                                               ; preds = %7
  %13 = load i64, ptr %3, align 8, !tbaa !85
  %14 = load i64, ptr %4, align 8, !tbaa !85
  call void (ptr, ...) @die(ptr noundef @.str.22, i64 noundef %13, i64 noundef %14) #12
  unreachable

15:                                               ; preds = %7, %2
  %16 = load i64, ptr %3, align 8, !tbaa !85
  %17 = load i64, ptr %4, align 8, !tbaa !85
  %18 = mul i64 %16, %17
  ret i64 %18
}

; Function Attrs: nounwind uwtable
define dso_local void @copy_pathspec(ptr noundef %0, ptr noundef %1) #0 {
  %3 = alloca ptr, align 8
  %4 = alloca ptr, align 8
  %5 = alloca i32, align 4
  %6 = alloca i32, align 4
  %7 = alloca i64, align 8
  %8 = alloca ptr, align 8
  %9 = alloca ptr, align 8
  %10 = alloca i64, align 8
  %11 = alloca ptr, align 8
  store ptr %0, ptr %3, align 8, !tbaa !4
  store ptr %1, ptr %4, align 8, !tbaa !4
  call void @llvm.lifetime.start.p0(i64 4, ptr %5) #10
  call void @llvm.lifetime.start.p0(i64 4, ptr %6) #10
  %12 = load ptr, ptr %3, align 8, !tbaa !4
  %13 = load ptr, ptr %4, align 8, !tbaa !4
  call void @llvm.memcpy.p0.p0.i64(ptr align 8 %12, ptr align 8 %13, i64 24, i1 false), !tbaa.struct !98
  br label %14

14:                                               ; preds = %2
  call void @llvm.lifetime.start.p0(i64 8, ptr %7) #10
  %15 = load ptr, ptr %3, align 8, !tbaa !4
  %16 = getelementptr inbounds nuw %struct.pathspec, ptr %15, i32 0, i32 0
  %17 = load i32, ptr %16, align 8, !tbaa !15
  %18 = sext i32 %17 to i64
  store i64 %18, ptr %7, align 8, !tbaa !85
  %19 = load i64, ptr %7, align 8, !tbaa !85
  %20 = call i64 @st_mult(i64 noundef 56, i64 noundef %19)
  %21 = call ptr @xmalloc(i64 noundef %20)
  %22 = load ptr, ptr %3, align 8, !tbaa !4
  %23 = getelementptr inbounds nuw %struct.pathspec, ptr %22, i32 0, i32 4
  store ptr %21, ptr %23, align 8, !tbaa !73
  %24 = load ptr, ptr %4, align 8, !tbaa !4
  %25 = getelementptr inbounds nuw %struct.pathspec, ptr %24, i32 0, i32 4
  %26 = load ptr, ptr %25, align 8, !tbaa !73
  %27 = load i64, ptr %7, align 8, !tbaa !85
  call void @copy_array(ptr noundef %21, ptr noundef %26, i64 noundef %27, i64 noundef 56)
  call void @llvm.lifetime.end.p0(i64 8, ptr %7) #10
  br label %28

28:                                               ; preds = %14
  br label %29

29:                                               ; preds = %28
  store i32 0, ptr %5, align 4, !tbaa !13
  br label %30

30:                                               ; preds = %111, %29
  %31 = load i32, ptr %5, align 4, !tbaa !13
  %32 = load ptr, ptr %3, align 8, !tbaa !4
  %33 = getelementptr inbounds nuw %struct.pathspec, ptr %32, i32 0, i32 0
  %34 = load i32, ptr %33, align 8, !tbaa !15
  %35 = icmp slt i32 %31, %34
  br i1 %35, label %36, label %114

36:                                               ; preds = %30
  call void @llvm.lifetime.start.p0(i64 8, ptr %8) #10
  %37 = load ptr, ptr %3, align 8, !tbaa !4
  %38 = getelementptr inbounds nuw %struct.pathspec, ptr %37, i32 0, i32 4
  %39 = load ptr, ptr %38, align 8, !tbaa !73
  %40 = load i32, ptr %5, align 4, !tbaa !13
  %41 = sext i32 %40 to i64
  %42 = getelementptr inbounds %struct.pathspec_item, ptr %39, i64 %41
  store ptr %42, ptr %8, align 8, !tbaa !72
  call void @llvm.lifetime.start.p0(i64 8, ptr %9) #10
  %43 = load ptr, ptr %4, align 8, !tbaa !4
  %44 = getelementptr inbounds nuw %struct.pathspec, ptr %43, i32 0, i32 4
  %45 = load ptr, ptr %44, align 8, !tbaa !73
  %46 = load i32, ptr %5, align 4, !tbaa !13
  %47 = sext i32 %46 to i64
  %48 = getelementptr inbounds %struct.pathspec_item, ptr %45, i64 %47
  store ptr %48, ptr %9, align 8, !tbaa !72
  %49 = load ptr, ptr %9, align 8, !tbaa !72
  %50 = getelementptr inbounds nuw %struct.pathspec_item, ptr %49, i32 0, i32 0
  %51 = load ptr, ptr %50, align 8, !tbaa !74
  %52 = call ptr @xstrdup(ptr noundef %51)
  %53 = load ptr, ptr %8, align 8, !tbaa !72
  %54 = getelementptr inbounds nuw %struct.pathspec_item, ptr %53, i32 0, i32 0
  store ptr %52, ptr %54, align 8, !tbaa !74
  %55 = load ptr, ptr %9, align 8, !tbaa !72
  %56 = getelementptr inbounds nuw %struct.pathspec_item, ptr %55, i32 0, i32 1
  %57 = load ptr, ptr %56, align 8, !tbaa !78
  %58 = call ptr @xstrdup(ptr noundef %57)
  %59 = load ptr, ptr %8, align 8, !tbaa !72
  %60 = getelementptr inbounds nuw %struct.pathspec_item, ptr %59, i32 0, i32 1
  store ptr %58, ptr %60, align 8, !tbaa !78
  br label %61

61:                                               ; preds = %36
  call void @llvm.lifetime.start.p0(i64 8, ptr %10) #10
  %62 = load ptr, ptr %8, align 8, !tbaa !72
  %63 = getelementptr inbounds nuw %struct.pathspec_item, ptr %62, i32 0, i32 7
  %64 = load i32, ptr %63, align 4, !tbaa !88
  %65 = sext i32 %64 to i64
  store i64 %65, ptr %10, align 8, !tbaa !85
  %66 = load i64, ptr %10, align 8, !tbaa !85
  %67 = call i64 @st_mult(i64 noundef 16, i64 noundef %66)
  %68 = call ptr @xmalloc(i64 noundef %67)
  %69 = load ptr, ptr %8, align 8, !tbaa !72
  %70 = getelementptr inbounds nuw %struct.pathspec_item, ptr %69, i32 0, i32 8
  store ptr %68, ptr %70, align 8, !tbaa !87
  %71 = load ptr, ptr %9, align 8, !tbaa !72
  %72 = getelementptr inbounds nuw %struct.pathspec_item, ptr %71, i32 0, i32 8
  %73 = load ptr, ptr %72, align 8, !tbaa !87
  %74 = load i64, ptr %10, align 8, !tbaa !85
  call void @copy_array(ptr noundef %68, ptr noundef %73, i64 noundef %74, i64 noundef 16)
  call void @llvm.lifetime.end.p0(i64 8, ptr %10) #10
  br label %75

75:                                               ; preds = %61
  br label %76

76:                                               ; preds = %75
  store i32 0, ptr %6, align 4, !tbaa !13
  br label %77

77:                                               ; preds = %101, %76
  %78 = load i32, ptr %6, align 4, !tbaa !13
  %79 = load ptr, ptr %8, align 8, !tbaa !72
  %80 = getelementptr inbounds nuw %struct.pathspec_item, ptr %79, i32 0, i32 7
  %81 = load i32, ptr %80, align 4, !tbaa !88
  %82 = icmp slt i32 %78, %81
  br i1 %82, label %83, label %104

83:                                               ; preds = %77
  call void @llvm.lifetime.start.p0(i64 8, ptr %11) #10
  %84 = load ptr, ptr %9, align 8, !tbaa !72
  %85 = getelementptr inbounds nuw %struct.pathspec_item, ptr %84, i32 0, i32 8
  %86 = load ptr, ptr %85, align 8, !tbaa !87
  %87 = load i32, ptr %6, align 4, !tbaa !13
  %88 = sext i32 %87 to i64
  %89 = getelementptr inbounds %struct.attr_match, ptr %86, i64 %88
  %90 = getelementptr inbounds nuw %struct.attr_match, ptr %89, i32 0, i32 0
  %91 = load ptr, ptr %90, align 8, !tbaa !99
  store ptr %91, ptr %11, align 8, !tbaa !11
  %92 = load ptr, ptr %11, align 8, !tbaa !11
  %93 = call ptr @xstrdup_or_null(ptr noundef %92)
  %94 = load ptr, ptr %8, align 8, !tbaa !72
  %95 = getelementptr inbounds nuw %struct.pathspec_item, ptr %94, i32 0, i32 8
  %96 = load ptr, ptr %95, align 8, !tbaa !87
  %97 = load i32, ptr %6, align 4, !tbaa !13
  %98 = sext i32 %97 to i64
  %99 = getelementptr inbounds %struct.attr_match, ptr %96, i64 %98
  %100 = getelementptr inbounds nuw %struct.attr_match, ptr %99, i32 0, i32 0
  store ptr %93, ptr %100, align 8, !tbaa !99
  call void @llvm.lifetime.end.p0(i64 8, ptr %11) #10
  br label %101

101:                                              ; preds = %83
  %102 = load i32, ptr %6, align 4, !tbaa !13
  %103 = add nsw i32 %102, 1
  store i32 %103, ptr %6, align 4, !tbaa !13
  br label %77, !llvm.loop !101

104:                                              ; preds = %77
  %105 = load ptr, ptr %9, align 8, !tbaa !72
  %106 = getelementptr inbounds nuw %struct.pathspec_item, ptr %105, i32 0, i32 9
  %107 = load ptr, ptr %106, align 8, !tbaa !86
  %108 = call ptr @attr_check_dup(ptr noundef %107)
  %109 = load ptr, ptr %8, align 8, !tbaa !72
  %110 = getelementptr inbounds nuw %struct.pathspec_item, ptr %109, i32 0, i32 9
  store ptr %108, ptr %110, align 8, !tbaa !86
  call void @llvm.lifetime.end.p0(i64 8, ptr %9) #10
  call void @llvm.lifetime.end.p0(i64 8, ptr %8) #10
  br label %111

111:                                              ; preds = %104
  %112 = load i32, ptr %5, align 4, !tbaa !13
  %113 = add nsw i32 %112, 1
  store i32 %113, ptr %5, align 4, !tbaa !13
  br label %30, !llvm.loop !102

114:                                              ; preds = %30
  call void @llvm.lifetime.end.p0(i64 4, ptr %6) #10
  call void @llvm.lifetime.end.p0(i64 4, ptr %5) #10
  ret void
}