; Function Attrs: nounwind uwtable
define dso_local void @copy_pathspec(ptr noundef captures(none) initializes((0, 24)) %0, ptr noundef readonly captures(none) %1) local_unnamed_addr #0 {
  tail call void @llvm.memcpy.p0.p0.i64(ptr noundef nonnull align 8 dereferenceable(24) %0, ptr noundef nonnull align 8 dereferenceable(24) %1, i64 24, i1 false), !tbaa.struct !108
  %3 = load i32, ptr %0, align 8, !tbaa !4
  %4 = sext i32 %3 to i64
  %mul.ov.i = icmp slt i32 %3, 0
  br i1 %mul.ov.i, label %5, label %st_mult.exit

5:                                                ; preds = %2
  tail call void (ptr, ...) @die(ptr noundef nonnull @.str.22, i64 noundef 56, i64 noundef range(i64 -2147483648, 2147483648) %4) #18
  unreachable

st_mult.exit:                                     ; preds = %2
  %6 = mul nuw nsw i64 %4, 56
  %7 = tail call ptr @xmalloc(i64 noundef %6) #17
  %8 = getelementptr inbounds nuw i8, ptr %0, i64 16
  store ptr %7, ptr %8, align 8, !tbaa !63
  %9 = getelementptr inbounds nuw i8, ptr %1, i64 16
  %.not.i = icmp eq i32 %3, 0
  br i1 %.not.i, label %copy_array.exit, label %st_mult.exit.i

st_mult.exit.i:                                   ; preds = %st_mult.exit
  %10 = load ptr, ptr %9, align 8, !tbaa !63
  tail call void @llvm.memcpy.p0.p0.i64(ptr align 1 %7, ptr readonly align 1 %10, i64 %6, i1 false)
  br label %copy_array.exit

copy_array.exit:                                  ; preds = %st_mult.exit, %st_mult.exit.i
  %11 = load i32, ptr %0, align 8, !tbaa !4
  %12 = icmp sgt i32 %11, 0
  br i1 %12, label %.lr.ph44, label %._crit_edge45

.lr.ph44:                                         ; preds = %copy_array.exit, %._crit_edge
  %indvars.iv48 = phi i64 [ %indvars.iv.next49, %._crit_edge ], [ 0, %copy_array.exit ]
  %13 = load ptr, ptr %8, align 8, !tbaa !63
  %14 = getelementptr inbounds nuw %struct.pathspec_item, ptr %13, i64 %indvars.iv48
  %15 = load ptr, ptr %9, align 8, !tbaa !63
  %16 = getelementptr inbounds nuw %struct.pathspec_item, ptr %15, i64 %indvars.iv48
  %17 = load ptr, ptr %16, align 8, !tbaa !64
  %18 = tail call ptr @xstrdup(ptr noundef %17) #17
  store ptr %18, ptr %14, align 8, !tbaa !64
  %19 = getelementptr inbounds nuw i8, ptr %16, i64 8
  %20 = load ptr, ptr %19, align 8, !tbaa !68
  %21 = tail call ptr @xstrdup(ptr noundef %20) #17
  %22 = getelementptr inbounds nuw i8, ptr %14, i64 8
  store ptr %21, ptr %22, align 8, !tbaa !68
  %23 = getelementptr inbounds nuw i8, ptr %14, i64 36
  %24 = load i32, ptr %23, align 4, !tbaa !83
  %25 = sext i32 %24 to i64
  %mul.ov.i34 = icmp slt i32 %24, 0
  br i1 %mul.ov.i34, label %26, label %st_mult.exit35

26:                                               ; preds = %.lr.ph44
  tail call void (ptr, ...) @die(ptr noundef nonnull @.str.22, i64 noundef 16, i64 noundef range(i64 -2147483648, 2147483648) %25) #18
  unreachable

st_mult.exit35:                                   ; preds = %.lr.ph44
  %27 = shl nuw nsw i64 %25, 4
  %28 = tail call ptr @xmalloc(i64 noundef %27) #17
  %29 = getelementptr inbounds nuw i8, ptr %14, i64 40
  store ptr %28, ptr %29, align 8, !tbaa !78
  %30 = getelementptr inbounds nuw i8, ptr %16, i64 40
  %.not.i36 = icmp eq i32 %24, 0
  br i1 %.not.i36, label %copy_array.exit40, label %st_mult.exit.i39

st_mult.exit.i39:                                 ; preds = %st_mult.exit35
  %31 = load ptr, ptr %30, align 8, !tbaa !78
  tail call void @llvm.memcpy.p0.p0.i64(ptr align 1 %28, ptr readonly align 1 %31, i64 %27, i1 false)
  br label %copy_array.exit40

copy_array.exit40:                                ; preds = %st_mult.exit35, %st_mult.exit.i39
  %32 = load i32, ptr %23, align 4, !tbaa !83
  %33 = icmp sgt i32 %32, 0
  br i1 %33, label %.lr.ph, label %._crit_edge

.lr.ph:                                           ; preds = %copy_array.exit40, %xstrdup_or_null.exit
  %34 = phi i32 [ %40, %xstrdup_or_null.exit ], [ %32, %copy_array.exit40 ]
  %indvars.iv = phi i64 [ %indvars.iv.next, %xstrdup_or_null.exit ], [ 0, %copy_array.exit40 ]
  %35 = load ptr, ptr %30, align 8, !tbaa !78
  %36 = getelementptr inbounds nuw %struct.attr_match, ptr %35, i64 %indvars.iv
  %37 = load ptr, ptr %36, align 8, !tbaa !89
  %.not.i41 = icmp eq ptr %37, null
  br i1 %.not.i41, label %xstrdup_or_null.exit, label %38

38:                                               ; preds = %.lr.ph
  %39 = tail call ptr @xstrdup(ptr noundef nonnull %37) #17
  %.pre = load i32, ptr %23, align 4, !tbaa !83
  br label %xstrdup_or_null.exit

xstrdup_or_null.exit:                             ; preds = %.lr.ph, %38
  %40 = phi i32 [ %.pre, %38 ], [ %34, %.lr.ph ]
  %41 = phi ptr [ %39, %38 ], [ null, %.lr.ph ]
  %42 = load ptr, ptr %29, align 8, !tbaa !78
  %43 = getelementptr inbounds nuw %struct.attr_match, ptr %42, i64 %indvars.iv
  store ptr %41, ptr %43, align 8, !tbaa !89
  %indvars.iv.next = add nuw nsw i64 %indvars.iv, 1
  %44 = sext i32 %40 to i64
  %45 = icmp slt i64 %indvars.iv.next, %44
  br i1 %45, label %.lr.ph, label %._crit_edge, !llvm.loop !110

._crit_edge:                                      ; preds = %xstrdup_or_null.exit, %copy_array.exit40
  %46 = getelementptr inbounds nuw i8, ptr %16, i64 48
  %47 = load ptr, ptr %46, align 8, !tbaa !77
  %48 = tail call ptr @attr_check_dup(ptr noundef %47) #17
  %49 = getelementptr inbounds nuw i8, ptr %14, i64 48
  store ptr %48, ptr %49, align 8, !tbaa !77
  %indvars.iv.next49 = add nuw nsw i64 %indvars.iv48, 1
  %50 = load i32, ptr %0, align 8, !tbaa !4
  %51 = sext i32 %50 to i64
  %52 = icmp slt i64 %indvars.iv.next49, %51
  br i1 %52, label %.lr.ph44, label %._crit_edge45, !llvm.loop !111

._crit_edge45:                                    ; preds = %._crit_edge, %copy_array.exit
  ret void
}